target datalayout = "e-m:e-p270:32:32-p271:32:32-p272:64:64-i64:64-i128:128-f80:128-n8:16:32:64-S128"
target triple = "x86_64-pc-linux-gnu"

@cASN1ObjectId = internal global i64 0, align 8

; Function Attrs: nounwind sspstrong uwtable
define internal i64 @ossl_asn1obj_eq(i64 noundef %0, i64 noundef %1) #0 {
  %3 = alloca i64, align 8
  %4 = alloca i64, align 8
  %5 = alloca i64, align 8
  %6 = alloca i64, align 8
  %7 = alloca i64, align 8
  %8 = alloca i32, align 4
  store i64 %0, ptr %4, align 8, !tbaa !20
  store i64 %1, ptr %5, align 8, !tbaa !20
  call void @llvm.lifetime.start.p0(i64 8, ptr %6) #16
  call void @llvm.lifetime.start.p0(i64 8, ptr %7) #16
  %9 = load i64, ptr %5, align 8, !tbaa !20
  %10 = load i64, ptr @cASN1ObjectId, align 8, !tbaa !20
  %11 = call i64 @rb_obj_is_kind_of(i64 noundef %9, i64 noundef %10)
  %12 = icmp ne i64 %11, 0
  br i1 %12, label %14, label %13

13:                                               ; preds = %2
  store i64 0, ptr %3, align 8
  store i32 1, ptr %8, align 4
  br label %22

14:                                               ; preds = %2
  %15 = load i64, ptr %4, align 8, !tbaa !20
  %16 = call i64 @ossl_asn1obj_get_oid(i64 noundef %15)
  store i64 %16, ptr %6, align 8, !tbaa !20
  %17 = load i64, ptr %5, align 8, !tbaa !20
  %18 = call i64 @ossl_asn1obj_get_oid(i64 noundef %17)
  store i64 %18, ptr %7, align 8, !tbaa !20
  %19 = load i64, ptr %6, align 8, !tbaa !20
  %20 = load i64, ptr %7, align 8, !tbaa !20
  %21 = call i64 @rb_str_equal(i64 noundef %19, i64 noundef %20)
  store i64 %21, ptr %3, align 8
  store i32 1, ptr %8, align 4
  br label %22

22:                                               ; preds = %14, %13
  call void @llvm.lifetime.end.p0(i64 8, ptr %7) #16
  call void @llvm.lifetime.end.p0(i64 8, ptr %6) #16
  %23 = load i64, ptr %3, align 8
  ret i64 %23
}