; Function Attrs: nounwind sspstrong uwtable
define internal i64 @ossl_asn1obj_eq(i64 noundef %0, i64 noundef %1) #0 {
  %3 = load i64, ptr @cASN1ObjectId, align 8, !tbaa !17
  %4 = tail call i64 @rb_obj_is_kind_of(i64 noundef %1, i64 noundef %3) #9
  %.not = icmp eq i64 %4, 0
  br i1 %.not, label %9, label %5

5:                                                ; preds = %2
  %6 = tail call i64 @ossl_asn1obj_get_oid(i64 noundef %0)
  %7 = tail call i64 @ossl_asn1obj_get_oid(i64 noundef %1)
  %8 = tail call i64 @rb_str_equal(i64 noundef %6, i64 noundef %7) #9
  br label %9

9:                                                ; preds = %2, %5
  %.0 = phi i64 [ %8, %5 ], [ 0, %2 ]
  ret i64 %.0
}